Certificate:
    Data:
        Version: 3 (0x2)
        Serial Number: 1 (0x1)
    Signature Algorithm: sha256WithRSAEncryption
        Issuer: C=US, ST=Unset, L=Unset, O=Unset, CN=www.example.com
        Validity
            Not Before: Mar 18 05:55:33 2015 GMT
            Not After : Mar 15 05:55:33 2025 GMT
        Subject: C=US, ST=Unset, O=Unset, CN=www.example.com
        Subject Public Key Info:
            Public Key Algorithm: rsaEncryption
                Public-Key: (2048 bit)
                Modulus:
                    00:c5:53:6b:56:3c:6b:58:a2:75:46:46:e3:d1:97:
                    11:99:3b:4b:15:0c:ff:a2:83:ac:27:27:a5:18:0b:
                    32:f6:0a:80:a7:96:a8:d4:46:a1:3a:33:9a:9c:b7:
                    75:e8:77:9e:67:14:7c:eb:4c:fc:7f:e6:0e:75:90:
                    ef:65:eb:94:e2:6d:de:7e:08:45:ad:ca:8b:61:3b:
                    fb:d9:0c:97:f6:9b:7c:bc:ea:0b:11:b5:b3:74:66:
                    6c:9d:57:27:cf:4a:b2:ee:d4:51:58:8d:1c:2a:f5:
                    24:01:c3:08:7c:69:e8:47:d4:88:61:77:3b:15:4d:
                    82:3e:47:48:2b:8a:d1:cc:ce:11:f2:01:74:93:7d:
                    30:94:c8:38:25:fb:b8:64:9e:eb:79:41:55:b8:c5:
                    62:ad:1d:a4:7b:80:03:6d:b3:a4:4f:89:30:87:4a:
                    88:f9:92:5e:a0:64:56:c3:64:05:73:cb:eb:cd:6b:
                    5d:52:9c:ad:69:cb:db:ed:6f:b4:f1:b8:66:ce:80:
                    c8:b5:7d:89:ad:5d:43:af:df:7e:a5:ff:e3:bb:81:
                    fe:cc:3e:9c:3a:b3:8b:e1:c8:6a:52:fb:4d:ee:38:
                    d5:81:0f:7e:f6:fa:6d:45:7d:c4:0e:8f:ab:43:b1:
                    fb:0b:35:97:26:7d:8e:a1:d1:64:28:53:62:30:ba:
                    0b:d9
                Exponent: 65537 (0x10001)
        X509v3 extensions:
            X509v3 Basic Constraints: 
                CA:FALSE
            X509v3 Subject Key Identifier: 
                C6:F4:BB:17:49:3D:40:C8:FA:0F:88:E2:31:A3:F5:6A:26:43:FF:65
            X509v3 Authority Key Identifier: 
                keyid:32:E7:2C:A3:01:97:08:95:C6:14:AE:97:8D:3E:36:66:F4:54:5C:F0

    Signature Algorithm: sha256WithRSAEncryption
         3a:30:3e:50:f0:3a:ef:a2:70:34:ab:dc:6b:44:95:92:5c:f1:
         b4:72:0c:0e:85:17:4e:93:df:53:12:95:74:6d:ef:b8:28:f8:
         d3:58:dd:aa:fd:a4:2e:7e:fd:be:8e:51:0a:55:78:82:18:d5:
         19:78:19:33:2c:86:48:71:f9:95:b8:2d:cc:75:bf:42:2f:54:
         c5:66:28:72:e1:c4:bf:7a:6a:54:cb:84:1e:c7:96:16:1f:f9:
         c1:01:cd:2d:bf:84:31:6f:ca:e8:18:31:5e:85:40:3f:b3:00:
         bd:51:5d:99:ca:68:06:da:b0:80:cb:d4:f3:d0:3e:e0:1d:c6:
         98:c7:90:1b:22:56:46:db:d2:95:f2:c4:d8:90:18:25:5c:4b:
         c2:35:75:52:f2:10:87:22:5d:d1:69:df:bc:02:e9:d5:f1:f3:
         ec:b1:e6:f2:ac:41:6f:12:2e:22:50:28:2a:03:e3:5f:7c:8f:
         ed:e1:47:e4:ba:db:92:60:13:8a:47:66:fc:1d:b0:18:25:9e:
         55:ea:97:96:ee:55:af:27:17:23:7c:89:08:60:dc:63:80:fd:
         02:a3:01:6a:fa:95:c4:6d:c7:b6:e0:de:aa:82:4f:46:d5:6e:
         e3:07:7b:9f:e5:7f:b9:6d:23:ad:36:73:53:33:4f:d3:d1:40:
         71:2e:03:a6
-----BEGIN CERTIFICATE-----
MIIDZjCCAk6gAwIBAgIBATANBgkqhkiG9w0BAQsFADBXMQswCQYDVQQGEwJVUzEO
MAwGA1UECAwFVW5zZXQxDjAMBgNVBAcMBVVuc2V0MQ4wDAYDVQQKDAVVbnNldDEY
MBYGA1UEAwwPd3d3LmV4YW1wbGUuY29tMB4XDTE1MDMxODA1NTUzM1oXDTI1MDMx
NTA1NTUzM1owRzELMAkGA1UEBhMCVVMxDjAMBgNVBAgMBVVuc2V0MQ4wDAYDVQQK
DAVVbnNldDEYMBYGA1UEAwwPd3d3LmV4YW1wbGUuY29tMIIBIjANBgkqhkiG9w0B
AQEFAAOCAQ8AMIIBCgKCAQEAxVNrVjxrWKJ1Rkbj0ZcRmTtLFQz/ooOsJyelGAsy
9gqAp5ao1EahOjOanLd16HeeZxR860z8f+YOdZDvZeuU4m3efghFrcqLYTv72QyX
9pt8vOoLEbWzdGZsnVcnz0qy7tRRWI0cKvUkAcMIfGnoR9SIYXc7FU2CPkdIK4rR
zM4R8gF0k30wlMg4Jfu4ZJ7reUFVuMVirR2ke4ADbbOkT4kwh0qI+ZJeoGRWw2QF
c8vrzWtdUpytacvb7W+08bhmzoDItX2JrV1Dr99+pf/ju4H+zD6cOrOL4chqUvtN
7jjVgQ9+9vptRX3EDo+rQ7H7CzWXJn2OodFkKFNiMLoL2QIDAQABo00wSzAJBgNV
HRMEAjAAMB0GA1UdDgQWBBTG9LsXST1AyPoPiOIxo/VqJkP/ZTAfBgNVHSMEGDAW
gBQy5yyjAZcIlcYUrpeNPjZm9FRc8DANBgkqhkiG9w0BAQsFAAOCAQEAOjA+UPA6
76JwNKvca0SVklzxtHIMDoUXTpPfUxKVdG3vuCj401jdqv2kLn79vo5RClV4ghjV
GXgZMyyGSHH5lbgtzHW/Qi9UxWYocuHEv3pqVMuEHseWFh/5wQHNLb+EMW/K6Bgx
XoVAP7MAvVFdmcpoBtqwgMvU89A+4B3GmMeQGyJWRtvSlfLE2JAYJVxLwjV1UvIQ
hyJd0WnfvALp1fHz7LHm8qxBbxIuIlAoKgPjX3yP7eFH5LrbkmATikdm/B2wGCWe
VeqXlu5VrycXI3yJCGDcY4D9AqMBavqVxG3HtuDeqoJPRtVu4wd7n+V/uW0jrTZz
UzNP09FAcS4Dpg==
-----END CERTIFICATE-----
